Certificate:
    Data:
        Version: 3 (0x2)
        Serial Number: 1 (0x1)
    Signature Algorithm: sha256WithRSAEncryption
        Issuer: C=CN, ST=Guangdong, L=Shenzhen, O=MUDUO, OU=Test, CN=test.Api.cn/emailAddress=andy_ro@qq.com  
        Validity
            Not Before: Feb 27 12:55:30 2020 GMT
            Not After : Feb 26 12:55:30 2021 GMT
        Subject: C=CN, ST=Guangdong, O=MUDUO, OU=Test, CN=www.testApi.com/emailAddress=andy_ro@qq.com  
        Subject Public Key Info:
            Public Key Algorithm: rsaEncryption
                Public-Key: (2048 bit)
                Modulus:
                    00:cb:f0:4d:3e:2b:e6:7b:e7:33:1e:d2:2d:eb:35:
                    58:42:40:52:f7:58:cf:1a:c5:a5:45:bd:87:c8:68:
                    e5:05:53:4a:8d:67:1d:4e:16:df:ac:bf:9c:ba:49:
                    9c:80:65:ba:d6:f9:a3:90:aa:1a:f8:ee:d0:17:69:
                    b3:02:ba:7d:2b:59:bc:d1:9e:fa:78:ee:21:d3:d4:
                    cb:23:35:e3:ee:a8:2f:7e:36:73:e6:f4:12:28:f1:
                    cd:3f:de:ad:91:d2:fd:b9:a8:3b:3d:2a:b7:cd:97:
                    fe:da:02:34:3d:bc:e4:11:a8:2d:49:79:40:c2:d8:
                    ec:a1:84:dc:9f:87:33:bd:ef:a7:2f:b1:21:63:76:
                    20:11:02:23:f6:0f:f8:da:f7:13:28:4a:c4:df:b3:
                    06:89:2e:7b:5b:cb:9b:8c:7d:21:87:55:57:67:87:
                    8b:a7:33:0d:3d:a9:6d:a8:09:17:11:fe:e6:9c:17:
                    bf:13:34:bf:78:21:6e:bd:57:06:01:2a:9a:87:ca:
                    10:c2:af:cb:03:43:a3:45:04:c0:c3:58:6c:67:46:
                    8e:69:83:88:45:e7:10:8d:10:c9:f2:ad:5b:15:e3:
                    b0:03:6e:30:32:c2:b7:4a:8d:88:b6:bb:9d:ed:3f:
                    ed:7b:21:b0:63:d0:d4:50:d6:8e:6a:8d:fa:9d:15:
                    5b:59
                Exponent: 65537 (0x10001)
        X509v3 extensions:
            X509v3 Basic Constraints: 
                CA:FALSE
            Netscape Comment: 
                OpenSSL Generated Certificate
            X509v3 Subject Key Identifier: 
                6C:E4:C2:62:BD:10:38:97:74:B5:D0:B3:F6:DB:65:90:A0:14:AD:3E
            X509v3 Authority Key Identifier: 
                keyid:C4:5E:A0:A2:F7:76:5F:C1:CD:44:F0:F4:71:0F:15:AD:B4:3D:7A:E0

    Signature Algorithm: sha256WithRSAEncryption
         77:e6:50:56:15:02:82:6b:93:6a:25:dd:a8:d8:39:ce:b2:74:
         a0:4f:a1:5a:88:1c:20:c2:f3:37:be:47:d7:c5:76:a2:cd:1e:
         44:1b:8e:50:08:2f:3d:4b:2b:5f:c1:5c:b6:d0:32:ab:21:48:
         71:2a:7a:a5:5c:60:53:d1:f8:21:0a:64:58:29:69:56:94:cd:
         d5:ce:1c:95:83:6f:54:31:0f:5c:bc:c4:21:0a:c5:9b:e6:90:
         99:84:e9:6b:e9:ed:38:f4:52:59:d4:d6:ad:4a:db:b9:29:f2:
         7f:b5:50:32:32:e5:29:66:04:73:6e:b3:57:f5:2e:fd:80:6e:
         50:21:23:f1:41:c0:39:6e:80:5f:de:bd:ab:2f:4d:ef:ae:8c:
         e2:ea:1f:47:74:a9:93:70:9e:1a:01:ae:29:b3:05:27:ca:76:
         98:f3:a1:7c:8d:a2:58:1e:db:72:4a:56:1b:a1:59:df:85:23:
         6c:82:75:9c:9c:fe:32:b1:63:da:38:a8:f9:35:e5:38:65:ec:
         e1:ee:3a:db:85:b0:96:7c:30:e1:5a:8c:17:89:d0:f1:83:7c:
         2c:90:b2:c5:e5:18:7e:ab:71:34:d3:9a:80:70:88:fa:5e:6f:
         13:fd:31:0b:c9:81:15:78:f0:6b:1f:97:b0:62:22:d6:10:f2:
         5e:fb:75:e8
-----BEGIN CERTIFICATE-----
MIID9jCCAt6gAwIBAgIBATANBgkqhkiG9w0BAQsFADCBhzELMAkGA1UEBhMCQ04x
EjAQBgNVBAgMCUd1YW5nZG9uZzERMA8GA1UEBwwIU2hlbnpoZW4xDTALBgNVBAoM
BFRYUVAxDTALBgNVBAsMBFRlc3QxFDASBgNVBAMMC3Rlc3QuQXBpLmNuMR0wGwYJ
KoZIhvcNAQkBFg5hbmR5X3JvQHFxLmNvbTAeFw0yMDAyMjcxMjU1MzBaFw0yMTAy
MjYxMjU1MzBaMHgxCzAJBgNVBAYTAkNOMRIwEAYDVQQIDAlHdWFuZ2RvbmcxDTAL
BgNVBAoMBFRYUVAxDTALBgNVBAsMBFRlc3QxGDAWBgNVBAMMD3d3dy50ZXN0QXBp
LmNvbTEdMBsGCSqGSIb3DQEJARYOYW5keV9yb0BxcS5jb20wggEiMA0GCSqGSIb3
DQEBAQUAA4IBDwAwggEKAoIBAQDL8E0+K+Z75zMe0i3rNVhCQFL3WM8axaVFvYfI
aOUFU0qNZx1OFt+sv5y6SZyAZbrW+aOQqhr47tAXabMCun0rWbzRnvp47iHT1Msj
NePuqC9+NnPm9BIo8c0/3q2R0v25qDs9KrfNl/7aAjQ9vOQRqC1JeUDC2OyhhNyf
hzO976cvsSFjdiARAiP2D/ja9xMoSsTfswaJLntby5uMfSGHVVdnh4unMw09qW2o
CRcR/uacF78TNL94IW69VwYBKpqHyhDCr8sDQ6NFBMDDWGxnRo5pg4hF5xCNEMny
rVsV47ADbjAywrdKjYi2u53tP+17IbBj0NRQ1o5qjfqdFVtZAgMBAAGjezB5MAkG
A1UdEwQCMAAwLAYJYIZIAYb4QgENBB8WHU9wZW5TU0wgR2VuZXJhdGVkIENlcnRp
ZmljYXRlMB0GA1UdDgQWBBRs5MJivRA4l3S10LP222WQoBStPjAfBgNVHSMEGDAW
gBTEXqCi93Zfwc1E8PRxDxWttD164DANBgkqhkiG9w0BAQsFAAOCAQEAd+ZQVhUC
gmuTaiXdqNg5zrJ0oE+hWogcIMLzN75H18V2os0eRBuOUAgvPUsrX8FcttAyqyFI
cSp6pVxgU9H4IQpkWClpVpTN1c4clYNvVDEPXLzEIQrFm+aQmYTpa+ntOPRSWdTW
rUrbuSnyf7VQMjLlKWYEc26zV/Uu/YBuUCEj8UHAOW6AX969qy9N766M4uofR3Sp
k3CeGgGuKbMFJ8p2mPOhfI2iWB7bckpWG6FZ34UjbIJ1nJz+MrFj2jio+TXlOGXs
4e4624Wwlnww4VqMF4nQ8YN8LJCyxeUYfqtxNNOagHCI+l5vE/0xC8mBFXjwax+X
sGIi1hDyXvt16A==
-----END CERTIFICATE-----
